target datalayout = "e-m:e-p270:32:32-p271:32:32-p272:64:64-i64:64-i128:128-f80:128-n8:16:32:64-S128"
target triple = "x86_64-pc-linux-gnu"

@.str = private unnamed_addr constant [12 x i8] c"_background\00", align 1
@.str.1 = private unnamed_addr constant [7 x i8] c"_draw_\00", align 1
@.str.2 = private unnamed_addr constant [53 x i8] c"Could not parse \22_background\22 attribute in graph %s\0A\00", align 1
@.str.3 = private unnamed_addr constant [8 x i8] c"  \22%s\22\0A\00", align 1

; Function Attrs: nounwind uwtable
define ptr @init_xdot(ptr noundef %0) #0 {
  %2 = alloca ptr, align 8
  %3 = alloca ptr, align 8
  %4 = alloca ptr, align 8
  %5 = alloca ptr, align 8
  %6 = alloca i32, align 4
  store ptr %0, ptr %3, align 8, !tbaa !3
  call void @llvm.lifetime.start.p0(i64 8, ptr %4) #15
  call void @llvm.lifetime.start.p0(i64 8, ptr %5) #15
  store ptr null, ptr %5, align 8, !tbaa !8
  %7 = load ptr, ptr %3, align 8, !tbaa !3
  %8 = call ptr @agget(ptr noundef %7, ptr noundef @.str)
  store ptr %8, ptr %4, align 8, !tbaa !9
  %9 = icmp ne ptr %8, null
  br i1 %9, label %10, label %16

10:                                               ; preds = %1
  %11 = load ptr, ptr %4, align 8, !tbaa !9
  %12 = getelementptr inbounds i8, ptr %11, i64 0
  %13 = load i8, ptr %12, align 1, !tbaa !11
  %14 = sext i8 %13 to i32
  %15 = icmp ne i32 %14, 0
  br i1 %15, label %28, label %16

16:                                               ; preds = %10, %1
  %17 = load ptr, ptr %3, align 8, !tbaa !3
  %18 = call ptr @agget(ptr noundef %17, ptr noundef @.str.1)
  store ptr %18, ptr %4, align 8, !tbaa !9
  %19 = icmp ne ptr %18, null
  br i1 %19, label %20, label %26

20:                                               ; preds = %16
  %21 = load ptr, ptr %4, align 8, !tbaa !9
  %22 = getelementptr inbounds i8, ptr %21, i64 0
  %23 = load i8, ptr %22, align 1, !tbaa !11
  %24 = sext i8 %23 to i32
  %25 = icmp ne i32 %24, 0
  br i1 %25, label %27, label %26

26:                                               ; preds = %20, %16
  store ptr null, ptr %2, align 8
  store i32 1, ptr %6, align 4
  br label %40

27:                                               ; preds = %20
  br label %28

28:                                               ; preds = %27, %10
  %29 = load ptr, ptr %4, align 8, !tbaa !9
  %30 = call ptr @parseXDotF(ptr noundef %29, ptr noundef null, i64 noundef 128)
  store ptr %30, ptr %5, align 8, !tbaa !8
  %31 = load ptr, ptr %5, align 8, !tbaa !8
  %32 = icmp ne ptr %31, null
  br i1 %32, label %38, label %33

33:                                               ; preds = %28
  %34 = load ptr, ptr %3, align 8, !tbaa !3
  %35 = call ptr @agnameof(ptr noundef %34)
  call void (ptr, ...) @agwarningf(ptr noundef @.str.2, ptr noundef %35)
  %36 = load ptr, ptr %4, align 8, !tbaa !9
  %37 = call i32 (i32, ptr, ...) @agerr(i32 noundef 3, ptr noundef @.str.3, ptr noundef %36)
  br label %38

38:                                               ; preds = %33, %28
  %39 = load ptr, ptr %5, align 8, !tbaa !8
  store ptr %39, ptr %2, align 8
  store i32 1, ptr %6, align 4
  br label %40

40:                                               ; preds = %38, %26
  call void @llvm.lifetime.end.p0(i64 8, ptr %5) #15
  call void @llvm.lifetime.end.p0(i64 8, ptr %4) #15
  %41 = load ptr, ptr %2, align 8
  ret ptr %41
}