; Function Attrs: nounwind uwtable
define ptr @init_xdot(ptr noundef %0) local_unnamed_addr #0 {
  %2 = tail call ptr @agget(ptr noundef %0, ptr noundef nonnull @.str) #27
  %.not = icmp eq ptr %2, null
  br i1 %.not, label %5, label %3

3:                                                ; preds = %1
  %4 = load i8, ptr %2, align 1, !tbaa !3
  %.not13 = icmp eq i8 %4, 0
  br i1 %.not13, label %5, label %9

5:                                                ; preds = %3, %1
  %6 = tail call ptr @agget(ptr noundef %0, ptr noundef nonnull @.str.1) #27
  %.not14 = icmp eq ptr %6, null
  br i1 %.not14, label %14, label %7

7:                                                ; preds = %5
  %8 = load i8, ptr %6, align 1, !tbaa !3
  %.not15 = icmp eq i8 %8, 0
  br i1 %.not15, label %14, label %9

9:                                                ; preds = %7, %3
  %.0 = phi ptr [ %2, %3 ], [ %6, %7 ]
  %10 = tail call ptr @parseXDotF(ptr noundef nonnull %.0, ptr noundef null, i64 noundef 128) #27
  %.not16 = icmp eq ptr %10, null
  br i1 %.not16, label %11, label %14

11:                                               ; preds = %9
  %12 = tail call ptr @agnameof(ptr noundef %0) #27
  tail call void (ptr, ...) @agwarningf(ptr noundef nonnull @.str.2, ptr noundef %12) #27
  %13 = tail call i32 (i32, ptr, ...) @agerr(i32 noundef 3, ptr noundef nonnull @.str.3, ptr noundef nonnull %.0) #27
  br label %14

14:                                               ; preds = %9, %11, %5, %7
  %.010 = phi ptr [ null, %7 ], [ null, %5 ], [ null, %11 ], [ %10, %9 ]
  ret ptr %.010
}